; Function Attrs: null_pointer_is_valid sspstrong uwtable
define internal void @dissect_pfcp_destination_interface(ptr noundef %0, ptr noundef %1, ptr noundef %2, ptr noundef %3, i16 noundef zeroext %4, i8 zeroext %5, ptr readnone captures(none) %6) #0 {
  %8 = alloca i32, align 4
  call void @llvm.lifetime.start.p0(i64 4, ptr nonnull %8) #15
  %9 = load i32, ptr @hf_pfcp_spare_h1, align 4
  %10 = tail call ptr @proto_tree_add_item(ptr noundef %2, i32 noundef %9, ptr noundef %0, i32 noundef 0, i32 noundef 1, i32 noundef 0)
  %11 = load i32, ptr @hf_pfcp_dst_interface, align 4
  %12 = call ptr @proto_tree_add_item_ret_uint(ptr noundef %2, i32 noundef %11, ptr noundef %0, i32 noundef 0, i32 noundef 1, i32 noundef 0, ptr noundef nonnull %8)
  %13 = load i32, ptr %8, align 4
  %14 = call ptr @val_to_str_const(i32 noundef %13, ptr noundef nonnull @pfcp_dst_interface_vals, ptr noundef nonnull @.str.2639)
  call void (ptr, ptr, ...) @proto_item_append_text(ptr noundef %3, ptr noundef nonnull @.str.2654, ptr noundef %14)
  %15 = icmp ugt i16 %4, 1
  br i1 %15, label %16, label %decode_pfcp_destination_interface.exit

16:                                               ; preds = %7
  %17 = call ptr @proto_tree_add_expert(ptr noundef %2, ptr noundef %1, ptr noundef nonnull @ei_pfcp_ie_data_not_decoded, ptr noundef %0, i32 noundef 1, i32 noundef -1)
  br label %decode_pfcp_destination_interface.exit

decode_pfcp_destination_interface.exit:           ; preds = %7, %16
  call void @llvm.lifetime.end.p0(i64 4, ptr nonnull %8) #15
  ret void
}